target datalayout = "e-m:e-p270:32:32-p271:32:32-p272:64:64-i64:64-i128:128-f80:128-n8:16:32:64-S128"
target triple = "x86_64-unknown-linux-gnu"

%struct.PropertyInfo = type { ptr, ptr, ptr, i8, ptr, ptr, ptr, ptr, ptr, ptr }
%struct.Property = type { ptr, ptr, i64, i8, i64, i8, %union.anon, i32, ptr, i32, ptr }
%union.anon = type { i64 }

@.str = private unnamed_addr constant [34 x i8] c"../qemu/hw/core/qdev-properties.c\00", align 1
@qdev_prop_bit64 = dso_local constant %struct.PropertyInfo { ptr @.str.5, ptr @.str.6, ptr null, i8 0, ptr null, ptr @set_default_value_bool, ptr null, ptr @prop_get_bit64, ptr @prop_set_bit64, ptr null }, align 8
@.str.28 = private unnamed_addr constant [31 x i8] c"prop->info == &qdev_prop_bit64\00", align 1
@__PRETTY_FUNCTION__.qdev_get_prop_mask64 = private unnamed_addr constant [42 x i8] c"uint64_t qdev_get_prop_mask64(Property *)\00", align 1

; Function Attrs: nounwind sspstrong uwtable
define internal i64 @qdev_get_prop_mask64(ptr noundef %prop) #0 {
entry:
  %prop.addr = alloca ptr, align 8
  store ptr %prop, ptr %prop.addr, align 8
  %0 = load ptr, ptr %prop.addr, align 8
  %info = getelementptr inbounds %struct.Property, ptr %0, i32 0, i32 1
  %1 = load ptr, ptr %info, align 8
  %cmp = icmp eq ptr %1, @qdev_prop_bit64
  br i1 %cmp, label %if.then, label %if.else

if.then:                                          ; preds = %entry
  br label %if.end

if.else:                                          ; preds = %entry
  call void @__assert_fail(ptr noundef @.str.28, ptr noundef @.str, i32 noundef 191, ptr noundef @__PRETTY_FUNCTION__.qdev_get_prop_mask64) #9
  unreachable

if.end:                                           ; preds = %if.then
  %2 = load ptr, ptr %prop.addr, align 8
  %bitnr = getelementptr inbounds %struct.Property, ptr %2, i32 0, i32 3
  %3 = load i8, ptr %bitnr, align 8
  %conv = zext i8 %3 to i32
  %sh_prom = zext i32 %conv to i64
  %shl = shl i64 1, %sh_prom
  ret i64 %shl
}

; Function Attrs: nounwind sspstrong uwtable
define dso_local ptr @object_field_prop_ptr(ptr noundef %obj, ptr noundef %prop) #0 {
entry:
  %obj.addr = alloca ptr, align 8
  %prop.addr = alloca ptr, align 8
  %ptr = alloca ptr, align 8
  store ptr %obj, ptr %obj.addr, align 8
  store ptr %prop, ptr %prop.addr, align 8
  %0 = load ptr, ptr %obj.addr, align 8
  store ptr %0, ptr %ptr, align 8
  %1 = load ptr, ptr %prop.addr, align 8
  %offset = getelementptr inbounds %struct.Property, ptr %1, i32 0, i32 2
  %2 = load i64, ptr %offset, align 8
  %3 = load ptr, ptr %ptr, align 8
  %add.ptr = getelementptr i8, ptr %3, i64 %2
  store ptr %add.ptr, ptr %ptr, align 8
  %4 = load ptr, ptr %ptr, align 8
  ret ptr %4
}

; Function Attrs: nounwind sspstrong uwtable
define internal void @bit64_prop_set(ptr noundef %obj, ptr noundef %props, i1 noundef zeroext %val) #0 {
entry:
  %obj.addr = alloca ptr, align 8
  %props.addr = alloca ptr, align 8
  %val.addr = alloca i8, align 1
  %p = alloca ptr, align 8
  %mask = alloca i64, align 8
  store ptr %obj, ptr %obj.addr, align 8
  store ptr %props, ptr %props.addr, align 8
  %frombool = zext i1 %val to i8
  store i8 %frombool, ptr %val.addr, align 1
  %0 = load ptr, ptr %obj.addr, align 8
  %1 = load ptr, ptr %props.addr, align 8
  %call = call ptr @object_field_prop_ptr(ptr noundef %0, ptr noundef %1)
  store ptr %call, ptr %p, align 8
  %2 = load ptr, ptr %props.addr, align 8
  %call1 = call i64 @qdev_get_prop_mask64(ptr noundef %2)
  store i64 %call1, ptr %mask, align 8
  %3 = load i8, ptr %val.addr, align 1
  %tobool = trunc i8 %3 to i1
  br i1 %tobool, label %if.then, label %if.else

if.then:                                          ; preds = %entry
  %4 = load i64, ptr %mask, align 8
  %5 = load ptr, ptr %p, align 8
  %6 = load i64, ptr %5, align 8
  %or = or i64 %6, %4
  store i64 %or, ptr %5, align 8
  br label %if.end

if.else:                                          ; preds = %entry
  %7 = load i64, ptr %mask, align 8
  %not = xor i64 %7, -1
  %8 = load ptr, ptr %p, align 8
  %9 = load i64, ptr %8, align 8
  %and = and i64 %9, %not
  store i64 %and, ptr %8, align 8
  br label %if.end

if.end:                                           ; preds = %if.else, %if.then
  ret void
}

; Function Attrs: nounwind sspstrong uwtable
define internal void @prop_set_bit64(ptr noundef %obj, ptr noundef %v, ptr noundef %name, ptr noundef %opaque, ptr noundef %errp) #0 {
entry:
  %obj.addr = alloca ptr, align 8
  %v.addr = alloca ptr, align 8
  %name.addr = alloca ptr, align 8
  %opaque.addr = alloca ptr, align 8
  %errp.addr = alloca ptr, align 8
  %prop = alloca ptr, align 8
  %value = alloca i8, align 1
  store ptr %obj, ptr %obj.addr, align 8
  store ptr %v, ptr %v.addr, align 8
  store ptr %name, ptr %name.addr, align 8
  store ptr %opaque, ptr %opaque.addr, align 8
  store ptr %errp, ptr %errp.addr, align 8
  %0 = load ptr, ptr %opaque.addr, align 8
  store ptr %0, ptr %prop, align 8
  %1 = load ptr, ptr %v.addr, align 8
  %2 = load ptr, ptr %name.addr, align 8
  %3 = load ptr, ptr %errp.addr, align 8
  %call = call zeroext i1 @visit_type_bool(ptr noundef %1, ptr noundef %2, ptr noundef %value, ptr noundef %3)
  br i1 %call, label %if.end, label %if.then

if.then:                                          ; preds = %entry
  br label %return

if.end:                                           ; preds = %entry
  %4 = load ptr, ptr %obj.addr, align 8
  %5 = load ptr, ptr %prop, align 8
  %6 = load i8, ptr %value, align 1
  %tobool = trunc i8 %6 to i1
  call void @bit64_prop_set(ptr noundef %4, ptr noundef %5, i1 noundef zeroext %tobool)
  br label %return

return:                                           ; preds = %if.end, %if.then
  ret void
}