; Function Attrs: nounwind sspstrong uwtable
define internal void @prop_set_bit64(ptr noundef captures(none) %obj, ptr noundef %v, ptr noundef %name, ptr noundef readonly captures(none) %opaque, ptr noundef %errp) #0 {
entry:
  %value = alloca i8, align 1
  %call = call zeroext i1 @visit_type_bool(ptr noundef %v, ptr noundef %name, ptr noundef nonnull %value, ptr noundef %errp) #9
  br i1 %call, label %if.end, label %return

if.end:                                           ; preds = %entry
  %offset.i.i = getelementptr inbounds nuw i8, ptr %opaque, i64 16
  %0 = load i64, ptr %offset.i.i, align 8
  %add.ptr.i.i = getelementptr i8, ptr %obj, i64 %0
  %info.i.i = getelementptr inbounds nuw i8, ptr %opaque, i64 8
  %1 = load ptr, ptr %info.i.i, align 8
  %cmp.i.i = icmp eq ptr %1, @qdev_prop_bit64
  br i1 %cmp.i.i, label %qdev_get_prop_mask64.exit.i, label %if.else.i.i

if.else.i.i:                                      ; preds = %if.end
  call void @__assert_fail(ptr noundef nonnull @.str.28, ptr noundef nonnull @.str, i32 noundef 191, ptr noundef nonnull @__PRETTY_FUNCTION__.qdev_get_prop_mask64) #10
  unreachable

qdev_get_prop_mask64.exit.i:                      ; preds = %if.end
  %2 = load i8, ptr %value, align 1
  %tobool = trunc i8 %2 to i1
  %bitnr.i.i = getelementptr inbounds nuw i8, ptr %opaque, i64 24
  %3 = load i8, ptr %bitnr.i.i, align 8
  %sh_prom.i.i = zext nneg i8 %3 to i64
  %shl.i.i = shl nuw i64 1, %sh_prom.i.i
  br i1 %tobool, label %if.then.i, label %if.else.i

if.then.i:                                        ; preds = %qdev_get_prop_mask64.exit.i
  %4 = load i64, ptr %add.ptr.i.i, align 8
  %or.i = or i64 %4, %shl.i.i
  br label %bit64_prop_set.exit

if.else.i:                                        ; preds = %qdev_get_prop_mask64.exit.i
  %not.i = xor i64 %shl.i.i, -1
  %5 = load i64, ptr %add.ptr.i.i, align 8
  %and.i = and i64 %5, %not.i
  br label %bit64_prop_set.exit

bit64_prop_set.exit:                              ; preds = %if.then.i, %if.else.i
  %storemerge.i = phi i64 [ %and.i, %if.else.i ], [ %or.i, %if.then.i ]
  store i64 %storemerge.i, ptr %add.ptr.i.i, align 8
  br label %return

return:                                           ; preds = %entry, %bit64_prop_set.exit
  ret void
}